; Function Attrs: mustprogress nounwind uwtable
define internal fastcc void @_ZNK12_GLOBAL__N_117KernelOperandInfo5printERN4llvm11raw_ostreamE(ptr noundef nonnull align 8 dereferenceable(64) %0, ptr noundef nonnull align 8 dereferenceable(48) %1) unnamed_addr #0 align 2 {
  %3 = getelementptr inbounds nuw i8, ptr %1, i64 24
  %4 = load ptr, ptr %3, align 8
  %5 = getelementptr inbounds nuw i8, ptr %1, i64 32
  %6 = load ptr, ptr %5, align 8
  %7 = ptrtoint ptr %4 to i64
  %8 = ptrtoint ptr %6 to i64
  %9 = sub i64 %7, %8
  %10 = icmp ult i64 %9, 7
  br i1 %10, label %11, label %13

11:                                               ; preds = %2
  %12 = tail call noundef nonnull align 8 dereferenceable(48) ptr @_ZN4llvm11raw_ostream5writeEPKcm(ptr noundef nonnull align 8 dereferenceable(48) %1, ptr noundef nonnull @.str.15, i64 noundef 7) #18
  br label %_ZN4llvm11raw_ostreamlsEPKc.exit

13:                                               ; preds = %2
  tail call void @llvm.memcpy.p0.p0.i64(ptr noundef nonnull align 1 dereferenceable(7) %6, ptr noundef nonnull align 1 dereferenceable(7) @.str.15, i64 7, i1 false)
  %14 = load ptr, ptr %5, align 8
  %15 = getelementptr inbounds i8, ptr %14, i64 7
  store ptr %15, ptr %5, align 8
  br label %_ZN4llvm11raw_ostreamlsEPKc.exit

_ZN4llvm11raw_ostreamlsEPKc.exit:                 ; preds = %11, %13
  %.0.i.i = phi ptr [ %12, %11 ], [ %1, %13 ]
  %16 = getelementptr inbounds nuw i8, ptr %0, i64 48
  %17 = load ptr, ptr %16, align 8
  tail call void @_ZNK4llvm14MachineOperand5printERNS_11raw_ostreamEPKNS_18TargetRegisterInfoEPKNS_19TargetIntrinsicInfoE(ptr noundef nonnull align 8 dereferenceable(32) %17, ptr noundef nonnull align 8 dereferenceable(48) %.0.i.i, ptr noundef null, ptr noundef null) #18
  %18 = getelementptr inbounds nuw i8, ptr %.0.i.i, i64 24
  %19 = load ptr, ptr %18, align 8
  %20 = getelementptr inbounds nuw i8, ptr %.0.i.i, i64 32
  %21 = load ptr, ptr %20, align 8
  %22 = ptrtoint ptr %19 to i64
  %23 = ptrtoint ptr %21 to i64
  %24 = sub i64 %22, %23
  %25 = icmp ult i64 %24, 11
  br i1 %25, label %26, label %28

26:                                               ; preds = %_ZN4llvm11raw_ostreamlsEPKc.exit
  %27 = tail call noundef nonnull align 8 dereferenceable(48) ptr @_ZN4llvm11raw_ostream5writeEPKcm(ptr noundef nonnull align 8 dereferenceable(48) %.0.i.i, ptr noundef nonnull @.str.16, i64 noundef 11) #18
  br label %_ZN4llvm11raw_ostreamlsEPKc.exit4

28:                                               ; preds = %_ZN4llvm11raw_ostreamlsEPKc.exit
  tail call void @llvm.memcpy.p0.p0.i64(ptr noundef nonnull align 1 dereferenceable(11) %21, ptr noundef nonnull align 1 dereferenceable(11) @.str.16, i64 11, i1 false)
  %29 = load ptr, ptr %20, align 8
  %30 = getelementptr inbounds i8, ptr %29, i64 11
  store ptr %30, ptr %20, align 8
  br label %_ZN4llvm11raw_ostreamlsEPKc.exit4

_ZN4llvm11raw_ostreamlsEPKc.exit4:                ; preds = %26, %28
  %.0.i.i3 = phi ptr [ %27, %26 ], [ %.0.i.i, %28 ]
  %31 = getelementptr inbounds nuw i8, ptr %0, i64 16
  %32 = tail call noundef i64 @_ZNK4llvm15SmallVectorBaseIjE4sizeEv(ptr noundef nonnull align 8 dereferenceable(16) %31) #18
  %33 = tail call noundef nonnull align 8 dereferenceable(48) ptr @_ZN4llvm11raw_ostreamlsEm(ptr noundef nonnull align 8 dereferenceable(48) %.0.i.i3, i64 noundef %32) #18
  %34 = getelementptr inbounds nuw i8, ptr %33, i64 24
  %35 = load ptr, ptr %34, align 8
  %36 = getelementptr inbounds nuw i8, ptr %33, i64 32
  %37 = load ptr, ptr %36, align 8
  %38 = ptrtoint ptr %35 to i64
  %39 = ptrtoint ptr %37 to i64
  %40 = sub i64 %38, %39
  %41 = icmp ult i64 %40, 5
  br i1 %41, label %42, label %44

42:                                               ; preds = %_ZN4llvm11raw_ostreamlsEPKc.exit4
  %43 = tail call noundef nonnull align 8 dereferenceable(48) ptr @_ZN4llvm11raw_ostream5writeEPKcm(ptr noundef nonnull align 8 dereferenceable(48) %33, ptr noundef nonnull @.str.17, i64 noundef 5) #18
  br label %_ZN4llvm11raw_ostreamlsEPKc.exit7

44:                                               ; preds = %_ZN4llvm11raw_ostreamlsEPKc.exit4
  tail call void @llvm.memcpy.p0.p0.i64(ptr noundef nonnull align 1 dereferenceable(5) %37, ptr noundef nonnull align 1 dereferenceable(5) @.str.17, i64 5, i1 false)
  %45 = load ptr, ptr %36, align 8
  %46 = getelementptr inbounds i8, ptr %45, i64 5
  store ptr %46, ptr %36, align 8
  br label %_ZN4llvm11raw_ostreamlsEPKc.exit7

_ZN4llvm11raw_ostreamlsEPKc.exit7:                ; preds = %42, %44
  %.0.i.i6 = phi ptr [ %43, %42 ], [ %33, %44 ]
  %47 = load ptr, ptr %16, align 8
  %48 = getelementptr inbounds nuw i8, ptr %47, i64 8
  %49 = load ptr, ptr %48, align 8
  tail call void @_ZNK4llvm12MachineInstr5printERNS_11raw_ostreamEbbbbPKNS_15TargetInstrInfoE(ptr noundef nonnull align 8 dereferenceable(70) %49, ptr noundef nonnull align 8 dereferenceable(48) %.0.i.i6, i1 noundef zeroext true, i1 noundef zeroext false, i1 noundef zeroext false, i1 noundef zeroext true, ptr noundef null) #18
  ret void
}